; Function Attrs: mustprogress nounwind uwtable
define dso_local void @_ZN3net12HpackDecoderD0Ev(ptr noundef nonnull align 8 dereferenceable(480) %this) unnamed_addr #3 align 2 {
entry:
  store ptr getelementptr inbounds ({ [11 x ptr] }, ptr @_ZTVN3net12HpackDecoderE, i64 0, i32 0, i64 2), ptr %this, align 8
  %value_buffer_.i = getelementptr inbounds i8, ptr %this, i64 416
  tail call void @_ZNSt7__cxx1112basic_stringIcSt11char_traitsIcESaIcEED1Ev(ptr noundef nonnull align 8 dereferenceable(32) %value_buffer_.i) #11
  %key_buffer_.i = getelementptr inbounds i8, ptr %this, i64 384
  tail call void @_ZNSt7__cxx1112basic_stringIcSt11char_traitsIcESaIcEED1Ev(ptr noundef nonnull align 8 dereferenceable(32) %key_buffer_.i) #11
  %decoded_block_.i = getelementptr inbounds i8, ptr %this, i64 296
  tail call void @_ZN3net15SpdyHeaderBlockD1Ev(ptr noundef nonnull align 8 dereferenceable(88) %decoded_block_.i) #11
  %headers_block_buffer_.i = getelementptr inbounds i8, ptr %this, i64 264
  tail call void @_ZNSt7__cxx1112basic_stringIcSt11char_traitsIcESaIcEED1Ev(ptr noundef nonnull align 8 dereferenceable(32) %headers_block_buffer_.i) #11
  %header_table_.i = getelementptr inbounds i8, ptr %this, i64 8
  tail call void @_ZN3net16HpackHeaderTableD1Ev(ptr noundef nonnull align 8 dereferenceable(256) %header_table_.i) #11
  tail call void @_ZdlPv(ptr noundef nonnull %this) #12
  ret void
}